; Function Attrs: nounwind uwtable
define hidden noundef i32 @cmsIT8SetSheetType(ptr noundef %0, ptr nocapture noundef readonly %1) local_unnamed_addr #0 {
  %3 = getelementptr inbounds i8, ptr %0, i64 4
  %4 = load i32, ptr %3, align 4
  %5 = load i32, ptr %0, align 8
  %.not.i = icmp ult i32 %4, %5
  br i1 %.not.i, label %8, label %6

6:                                                ; preds = %2
  tail call void (ptr, ptr, ...) @SynError(ptr noundef nonnull %0, ptr noundef nonnull @.str.81, i32 noundef %4)
  %7 = getelementptr inbounds i8, ptr %0, i64 16
  br label %GetTable.exit

8:                                                ; preds = %2
  %9 = getelementptr inbounds i8, ptr %0, i64 16
  %10 = zext i32 %4 to i64
  %11 = getelementptr inbounds %struct._Table, ptr %9, i64 %10
  br label %GetTable.exit

GetTable.exit:                                    ; preds = %6, %8
  %.0.i = phi ptr [ %7, %6 ], [ %11, %8 ]
  %12 = tail call ptr @strncpy(ptr noundef nonnull dereferenceable(1) %.0.i, ptr noundef nonnull dereferenceable(1) %1, i64 noundef 1023) #17
  %13 = getelementptr inbounds i8, ptr %.0.i, i64 1023
  store i8 0, ptr %13, align 1
  ret i32 1
}